; Function Attrs: nounwind uwtable
define i32 @lv_draw_buf_width_to_stride_ex(ptr noundef readonly captures(none) %0, i32 noundef %1, i32 noundef %2) local_unnamed_addr #0 {
  %4 = getelementptr inbounds nuw i8, ptr %0, i64 40
  %5 = load ptr, ptr %4, align 8, !tbaa !10
  %.not = icmp eq ptr %5, null
  br i1 %.not, label %8, label %6

6:                                                ; preds = %3
  %7 = tail call i32 %5(i32 noundef %1, i32 noundef %2) #9
  br label %8

8:                                                ; preds = %3, %6
  %.0 = phi i32 [ %7, %6 ], [ 0, %3 ]
  ret i32 %.0
}